target datalayout = "e-m:e-p270:32:32-p271:32:32-p272:64:64-i64:64-i128:128-f80:128-n8:16:32:64-S128"
target triple = "x86_64-pc-linux-gnu"

%struct.slurm_conf_t = type { i64, ptr, i16, ptr, ptr, ptr, ptr, ptr, i16, ptr, ptr, ptr, ptr, ptr, ptr, ptr, i16, ptr, ptr, ptr, ptr, i16, ptr, ptr, ptr, i64, ptr, ptr, ptr, ptr, i16, ptr, ptr, i16, i32, ptr, i32, ptr, i32, i32, ptr, ptr, i64, i64, ptr, i16, i16, ptr, i32, i32, ptr, i32, ptr, i32, i16, i16, i16, ptr, i16, i16, ptr, ptr, i32, i16, i16, ptr, i32, i16, ptr, ptr, ptr, ptr, i16, ptr, ptr, ptr, ptr, i32, ptr, ptr, ptr, ptr, i16, i16, ptr, i32, i32, i32, i16, i16, ptr, ptr, i16, ptr, ptr, i32, i32, i32, i32, i32, i64, i32, i32, i16, ptr, ptr, i32, ptr, ptr, ptr, i16, i32, ptr, ptr, i16, ptr, ptr, i32, i16, ptr, ptr, ptr, ptr, i32, i32, i16, i16, i32, ptr, i16, ptr, i32, i32, i32, i32, i32, i32, ptr, i16, ptr, ptr, i32, i16, ptr, i32, i16, i16, ptr, ptr, ptr, i16, ptr, ptr, ptr, ptr, i16, i16, ptr, i16, ptr, i16, ptr, i16, ptr, i16, ptr, ptr, ptr, ptr, i16, ptr, ptr, ptr, i32, ptr, i32, ptr, ptr, i16, ptr, ptr, i32, i16, ptr, ptr, i16, i16, ptr, i16, ptr, ptr, ptr, i32, ptr, i16, i16, ptr, ptr, ptr, ptr, ptr, ptr, ptr, ptr, i16, i32, i16, ptr, ptr, ptr, ptr, i32, ptr, ptr, ptr, i16, ptr, ptr, ptr, i16, ptr, i16, ptr, i16, i16, ptr }

@plugin_type = external constant [0 x i8], align 1
@slurm_conf = dso_local global %struct.slurm_conf_t zeroinitializer, align 8
@.str.37 = private unnamed_addr constant [77 x i8] c"%s: %s: CGROUP: Took %d checks before pid %d was removed from the %s cgroup.\00", align 1
@__func__.common_cgroup_wait_pid_moved = private unnamed_addr constant [29 x i8] c"common_cgroup_wait_pid_moved\00", align 1
@.str.38 = private unnamed_addr constant [59 x i8] c"Pid %d is still in the %s cgroup after %d tries and %d ms.\00", align 1

; Function Attrs: nounwind uwtable
define dso_local zeroext i1 @common_cgroup_wait_pid_moved(ptr noundef %0, i32 noundef %1, ptr noundef %2) #0 {
  %4 = alloca i1, align 1
  %5 = alloca ptr, align 8
  %6 = alloca i32, align 4
  %7 = alloca ptr, align 8
  %8 = alloca ptr, align 8
  %9 = alloca i32, align 4
  %10 = alloca i32, align 4
  %11 = alloca i32, align 4
  %12 = alloca i8, align 1
  %13 = alloca i32, align 4
  store ptr %0, ptr %5, align 8
  store i32 %1, ptr %6, align 4
  store ptr %2, ptr %7, align 8
  call void @llvm.lifetime.start.p0(i64 8, ptr %8) #6
  store ptr null, ptr %8, align 8
  call void @llvm.lifetime.start.p0(i64 4, ptr %9) #6
  store i32 0, ptr %9, align 4
  call void @llvm.lifetime.start.p0(i64 4, ptr %10) #6
  store i32 0, ptr %10, align 4
  call void @llvm.lifetime.start.p0(i64 4, ptr %11) #6
  store i32 0, ptr %11, align 4
  call void @llvm.lifetime.start.p0(i64 1, ptr %12) #6
  br label %14

14:                                               ; preds = %44, %3
  %15 = load i32, ptr %10, align 4
  %16 = add nsw i32 %15, 1
  store i32 %16, ptr %10, align 4
  %17 = load ptr, ptr %5, align 8
  %18 = call i32 @common_cgroup_get_pids(ptr noundef %17, ptr noundef %8, ptr noundef %9)
  store i8 0, ptr %12, align 1
  store i32 0, ptr %11, align 4
  br label %19

19:                                               ; preds = %34, %14
  %20 = load i32, ptr %11, align 4
  %21 = load i32, ptr %9, align 4
  %22 = icmp slt i32 %20, %21
  br i1 %22, label %23, label %37

23:                                               ; preds = %19
  %24 = load ptr, ptr %8, align 8
  %25 = load i32, ptr %11, align 4
  %26 = sext i32 %25 to i64
  %27 = getelementptr inbounds i32, ptr %24, i64 %26
  %28 = load i32, ptr %27, align 4
  %29 = load i32, ptr %6, align 4
  %30 = icmp eq i32 %28, %29
  br i1 %30, label %31, label %33

31:                                               ; preds = %23
  store i8 1, ptr %12, align 1
  %32 = call i32 @poll(ptr noundef null, i64 noundef 0, i32 noundef 100)
  br label %37

33:                                               ; preds = %23
  br label %34

34:                                               ; preds = %33
  %35 = load i32, ptr %11, align 4
  %36 = add nsw i32 %35, 1
  store i32 %36, ptr %11, align 4
  br label %19, !llvm.loop !21

37:                                               ; preds = %31, %19
  call void @slurm_xfree(ptr noundef %8)
  br label %38

38:                                               ; preds = %37
  %39 = load i8, ptr %12, align 1, !range !18, !noundef !19
  %40 = trunc i8 %39 to i1
  br i1 %40, label %41, label %44

41:                                               ; preds = %38
  %42 = load i32, ptr %10, align 4
  %43 = icmp slt i32 %42, 10
  br label %44

44:                                               ; preds = %41, %38
  %45 = phi i1 [ false, %38 ], [ %43, %41 ]
  br i1 %45, label %14, label %46, !llvm.loop !22

46:                                               ; preds = %44
  %47 = load i8, ptr %12, align 1, !range !18, !noundef !19
  %48 = trunc i8 %47 to i1
  br i1 %48, label %68, label %49

49:                                               ; preds = %46
  br label %50

50:                                               ; preds = %49
  %51 = load i64, ptr getelementptr inbounds nuw (%struct.slurm_conf_t, ptr @slurm_conf, i32 0, i32 42), align 8
  %52 = and i64 %51, 36028797018963968
  %53 = icmp ne i64 %52, 0
  br i1 %53, label %54, label %65

54:                                               ; preds = %50
  br label %55

55:                                               ; preds = %54
  %56 = call i32 @get_log_level()
  %57 = icmp sge i32 %56, 4
  br i1 %57, label %58, label %62

58:                                               ; preds = %55
  %59 = load i32, ptr %10, align 4
  %60 = load i32, ptr %6, align 4
  %61 = load ptr, ptr %7, align 8
  call void (i32, ptr, ...) @log_var(i32 noundef 4, ptr noundef @.str.37, ptr noundef @plugin_type, ptr noundef @__func__.common_cgroup_wait_pid_moved, i32 noundef %59, i32 noundef %60, ptr noundef %61)
  br label %62

62:                                               ; preds = %58, %55
  br label %63

63:                                               ; preds = %62
  br label %64

64:                                               ; preds = %63
  br label %65

65:                                               ; preds = %64, %50
  br label %66

66:                                               ; preds = %65
  br label %67

67:                                               ; preds = %66
  br label %73

68:                                               ; preds = %46
  %69 = load i32, ptr %6, align 4
  %70 = load ptr, ptr %7, align 8
  %71 = load i32, ptr %10, align 4
  %72 = call i32 (ptr, ...) @error(ptr noundef @.str.38, i32 noundef %69, ptr noundef %70, i32 noundef %71, i32 noundef 1000)
  store i1 false, ptr %4, align 1
  store i32 1, ptr %13, align 4
  br label %74

73:                                               ; preds = %67
  store i1 true, ptr %4, align 1
  store i32 1, ptr %13, align 4
  br label %74

74:                                               ; preds = %73, %68
  call void @llvm.lifetime.end.p0(i64 1, ptr %12) #6
  call void @llvm.lifetime.end.p0(i64 4, ptr %11) #6
  call void @llvm.lifetime.end.p0(i64 4, ptr %10) #6
  call void @llvm.lifetime.end.p0(i64 4, ptr %9) #6
  call void @llvm.lifetime.end.p0(i64 8, ptr %8) #6
  %75 = load i1, ptr %4, align 1
  ret i1 %75
}