; Function Attrs: nounwind uwtable
define dso_local noundef zeroext i1 @common_cgroup_wait_pid_moved(ptr noundef readonly captures(none) %0, i32 noundef %1, ptr noundef %2) local_unnamed_addr #0 {
  %4 = alloca ptr, align 8
  %5 = alloca i32, align 4
  call void @llvm.lifetime.start.p0(i64 8, ptr nonnull %4) #8
  store ptr null, ptr %4, align 8
  call void @llvm.lifetime.start.p0(i64 4, ptr nonnull %5) #8
  store i32 0, ptr %5, align 4
  br label %6

6:                                                ; preds = %17, %3
  %.016 = phi i32 [ 0, %3 ], [ %7, %17 ]
  %7 = add nuw nsw i32 %.016, 1
  %8 = call i32 @common_cgroup_get_pids(ptr noundef %0, ptr noundef nonnull %4, ptr noundef nonnull %5)
  %9 = load i32, ptr %5, align 4
  %10 = icmp slt i32 %9, 1
  br i1 %10, label %._crit_edge, label %.lr.ph

.lr.ph:                                           ; preds = %6
  %11 = load ptr, ptr %4, align 8
  %wide.trip.count = zext nneg i32 %9 to i64
  br label %13

12:                                               ; preds = %13
  %indvars.iv.next = add nuw nsw i64 %indvars.iv, 1
  %exitcond.not = icmp eq i64 %indvars.iv.next, %wide.trip.count
  br i1 %exitcond.not, label %._crit_edge, label %13, !llvm.loop !19

13:                                               ; preds = %.lr.ph, %12
  %indvars.iv = phi i64 [ 0, %.lr.ph ], [ %indvars.iv.next, %12 ]
  %14 = getelementptr inbounds nuw i32, ptr %11, i64 %indvars.iv
  %15 = load i32, ptr %14, align 4
  %16 = icmp eq i32 %15, %1
  br i1 %16, label %17, label %12

17:                                               ; preds = %13
  %18 = call i32 @poll(ptr noundef null, i64 noundef 0, i32 noundef 100) #8
  call void @slurm_xfree(ptr noundef nonnull %4) #8
  %exitcond33.not = icmp eq i32 %7, 10
  br i1 %exitcond33.not, label %25, label %6, !llvm.loop !20

._crit_edge:                                      ; preds = %6, %12
  call void @slurm_xfree(ptr noundef nonnull %4) #8
  %19 = load i64, ptr getelementptr inbounds nuw (i8, ptr @slurm_conf, i64 320), align 8
  %20 = and i64 %19, 36028797018963968
  %.not = icmp eq i64 %20, 0
  br i1 %.not, label %27, label %21

21:                                               ; preds = %._crit_edge
  %22 = call i32 @get_log_level() #8
  %23 = icmp sgt i32 %22, 3
  br i1 %23, label %24, label %27

24:                                               ; preds = %21
  call void (i32, ptr, ...) @log_var(i32 noundef 4, ptr noundef nonnull @.str.37, ptr noundef nonnull @plugin_type, ptr noundef nonnull @__func__.common_cgroup_wait_pid_moved, i32 noundef %7, i32 noundef %1, ptr noundef %2) #8
  br label %27

25:                                               ; preds = %17
  %26 = call i32 (ptr, ...) @error(ptr noundef nonnull @.str.38, i32 noundef %1, ptr noundef %2, i32 noundef 10, i32 noundef 1000) #8
  br label %27

27:                                               ; preds = %21, %24, %._crit_edge, %25
  %28 = phi i1 [ true, %21 ], [ true, %24 ], [ true, %._crit_edge ], [ false, %25 ]
  call void @llvm.lifetime.end.p0(i64 4, ptr nonnull %5) #8
  call void @llvm.lifetime.end.p0(i64 8, ptr nonnull %4) #8
  ret i1 %28
}